; Function Attrs: mustprogress uwtable
define void @_ZN2cv9videostab17OnePassStabilizer27estimateStabilizationMotionEv(ptr dead_on_unwind noalias writable sret(%"class.cv::Mat") align 8 %0, ptr noundef nonnull align 8 dereferenceable(712) %1) unnamed_addr #3 align 2 {
  %3 = alloca %"class.cv::Range", align 4
  %4 = getelementptr inbounds nuw i8, ptr %1, i64 696
  %5 = load ptr, ptr %4, align 8, !tbaa !153
  %6 = getelementptr inbounds nuw i8, ptr %1, i64 228
  %7 = load i32, ptr %6, align 4, !tbaa !107
  %8 = getelementptr inbounds nuw i8, ptr %1, i64 560
  call void @llvm.lifetime.start.p0(i64 8, ptr nonnull %3) #23
  %9 = getelementptr inbounds nuw i8, ptr %1, i64 224
  %10 = load i32, ptr %9, align 8, !tbaa !106
  store i32 0, ptr %3, align 4, !tbaa !131
  %11 = getelementptr inbounds nuw i8, ptr %3, i64 4
  store i32 %10, ptr %11, align 4, !tbaa !133
  %12 = load ptr, ptr %5, align 8, !tbaa !3
  %13 = getelementptr inbounds nuw i8, ptr %12, i64 24
  %14 = load ptr, ptr %13, align 8
  call void %14(ptr dead_on_unwind writable sret(%"class.cv::Mat") align 8 %0, ptr noundef nonnull align 8 dereferenceable(8) %5, i32 noundef %7, ptr noundef nonnull align 8 dereferenceable(24) %8, ptr noundef nonnull align 4 dereferenceable(8) %3)
  call void @llvm.lifetime.end.p0(i64 8, ptr nonnull %3) #23
  ret void
}